; Function Attrs: nounwind sspstrong uwtable
define internal i64 @asn1integer_to_num_i(i64 noundef %0) #0 {
  %2 = inttoptr i64 %0 to ptr
  %.not.i = icmp eq i64 %0, 0
  br i1 %.not.i, label %3, label %5

3:                                                ; preds = %1
  %4 = load i64, ptr @rb_eTypeError, align 8, !tbaa !17
  tail call void (i64, ptr, ...) @ossl_raise(i64 noundef %4, ptr noundef nonnull @.str.9) #10
  unreachable

5:                                                ; preds = %1
  %6 = getelementptr inbounds nuw i8, ptr %2, i64 4
  %7 = load i32, ptr %6, align 4, !tbaa !6
  %8 = icmp eq i32 %7, 10
  br i1 %8, label %9, label %11

9:                                                ; preds = %5
  %10 = tail call ptr @ASN1_ENUMERATED_to_BN(ptr noundef nonnull %2, ptr noundef null) #9
  br label %13

11:                                               ; preds = %5
  %12 = tail call ptr @ASN1_INTEGER_to_BN(ptr noundef nonnull %2, ptr noundef null) #9
  br label %13

13:                                               ; preds = %11, %9
  %.0.i = phi ptr [ %10, %9 ], [ %12, %11 ]
  %.not8.i = icmp eq ptr %.0.i, null
  br i1 %.not8.i, label %14, label %asn1integer_to_num.exit

14:                                               ; preds = %13
  %15 = load i64, ptr @eOSSLError, align 8, !tbaa !17
  tail call void (i64, ptr, ...) @ossl_raise(i64 noundef %15, ptr noundef null) #10
  unreachable

asn1integer_to_num.exit:                          ; preds = %13
  %16 = tail call i64 @ossl_bn_new(ptr noundef nonnull %.0.i) #9
  tail call void @BN_free(ptr noundef nonnull %.0.i) #9
  ret i64 %16
}